; Function Attrs: mustprogress nounwind uwtable
define hidden noundef i32 @_ZNK4ncnn13PReLU_x86_avx15forward_inplaceERNS_3MatERKNS_6OptionE(ptr noundef nonnull align 8 dereferenceable(288) %0, ptr noundef nonnull align 8 dereferenceable(72) %1, ptr noundef nonnull readonly align 8 captures(none) dereferenceable(64) %2) unnamed_addr #2 align 2 {
  %4 = alloca i32, align 4
  %5 = alloca i32, align 4
  %6 = alloca i32, align 4
  %7 = alloca i32, align 4
  %8 = alloca ptr, align 8
  %9 = alloca ptr, align 8
  %10 = alloca i32, align 4
  %11 = alloca i32, align 4
  %12 = alloca ptr, align 8
  %13 = alloca float, align 4
  %14 = alloca i32, align 4
  %15 = alloca i32, align 4
  %16 = alloca i32, align 4
  %17 = alloca i32, align 4
  %18 = tail call i32 @__kmpc_global_thread_num(ptr nonnull @2)
  %19 = getelementptr inbounds nuw i8, ptr %1, i64 40
  %20 = load i32, ptr %19, align 8, !tbaa !18
  %21 = getelementptr inbounds nuw i8, ptr %1, i64 44
  %22 = load i32, ptr %21, align 4, !tbaa !19
  call void @llvm.lifetime.start.p0(i64 4, ptr nonnull %4) #6
  %23 = getelementptr inbounds nuw i8, ptr %1, i64 48
  %24 = load i32, ptr %23, align 8, !tbaa !20
  store i32 %24, ptr %4, align 4, !tbaa !21
  call void @llvm.lifetime.start.p0(i64 4, ptr nonnull %5) #6
  %25 = getelementptr inbounds nuw i8, ptr %1, i64 56
  %26 = load i32, ptr %25, align 8, !tbaa !22
  store i32 %26, ptr %5, align 4, !tbaa !21
  call void @llvm.lifetime.start.p0(i64 4, ptr nonnull %6) #6
  %27 = getelementptr inbounds nuw i8, ptr %1, i64 24
  %28 = load i32, ptr %27, align 8, !tbaa !23
  store i32 %28, ptr %6, align 4, !tbaa !21
  switch i32 %20, label %84 [
    i32 1, label %29
    i32 2, label %75
    i32 3, label %79
  ]

29:                                               ; preds = %3
  call void @llvm.lifetime.start.p0(i64 4, ptr nonnull %7) #6
  %30 = mul nsw i32 %28, %22
  store i32 %30, ptr %7, align 4, !tbaa !21
  %31 = getelementptr inbounds nuw i8, ptr %0, i64 208
  %32 = load i32, ptr %31, align 8, !tbaa !24
  %33 = icmp sgt i32 %32, 1
  %34 = getelementptr inbounds nuw i8, ptr %0, i64 216
  br i1 %33, label %35, label %54

35:                                               ; preds = %29
  call void @llvm.lifetime.start.p0(i64 8, ptr nonnull %8) #6
  %36 = load ptr, ptr %1, align 8, !tbaa !16
  store ptr %36, ptr %8, align 8, !tbaa !40
  call void @llvm.lifetime.start.p0(i64 8, ptr nonnull %9) #6
  %37 = load ptr, ptr %34, align 8, !tbaa !16
  store ptr %37, ptr %9, align 8, !tbaa !40
  call void @llvm.lifetime.start.p0(i64 4, ptr nonnull %10) #6
  call void @llvm.lifetime.start.p0(i64 4, ptr nonnull %11) #6
  store i32 0, ptr %11, align 4, !tbaa !21
  %38 = sdiv i32 %30, 8
  store i32 %38, ptr %10, align 4, !tbaa !21
  %39 = getelementptr inbounds nuw i8, ptr %2, i64 4
  %40 = load i32, ptr %39, align 4, !tbaa !42
  tail call void @__kmpc_push_num_threads(ptr nonnull @2, i32 %18, i32 %40)
  call void (ptr, i32, ptr, ...) @__kmpc_fork_call(ptr nonnull @2, i32 4, ptr nonnull @_ZNK4ncnn13PReLU_x86_avx15forward_inplaceERNS_3MatERKNS_6OptionE.omp_outlined, ptr nonnull %10, ptr nonnull %11, ptr nonnull %8, ptr nonnull %9)
  %41 = load i32, ptr %10, align 4, !tbaa !21
  %42 = shl nsw i32 %41, 3
  %43 = load i32, ptr %11, align 4, !tbaa !21
  %44 = add nsw i32 %43, %42
  store i32 %44, ptr %11, align 4, !tbaa !21
  %45 = load i32, ptr %7, align 4, !tbaa !21
  %46 = sub nsw i32 %45, %44
  %47 = sdiv i32 %46, 4
  store i32 %47, ptr %10, align 4, !tbaa !21
  %48 = load i32, ptr %39, align 4, !tbaa !42
  call void @__kmpc_push_num_threads(ptr nonnull @2, i32 %18, i32 %48)
  call void (ptr, i32, ptr, ...) @__kmpc_fork_call(ptr nonnull @2, i32 4, ptr nonnull @_ZNK4ncnn13PReLU_x86_avx15forward_inplaceERNS_3MatERKNS_6OptionE.omp_outlined.1, ptr nonnull %10, ptr nonnull %11, ptr nonnull %8, ptr nonnull %9)
  %49 = load i32, ptr %10, align 4, !tbaa !21
  %50 = shl nsw i32 %49, 2
  %51 = load i32, ptr %11, align 4, !tbaa !21
  %52 = add nsw i32 %51, %50
  store i32 %52, ptr %11, align 4, !tbaa !21
  %53 = load i32, ptr %39, align 4, !tbaa !42
  call void @__kmpc_push_num_threads(ptr nonnull @2, i32 %18, i32 %53)
  call void (ptr, i32, ptr, ...) @__kmpc_fork_call(ptr nonnull @2, i32 4, ptr nonnull @_ZNK4ncnn13PReLU_x86_avx15forward_inplaceERNS_3MatERKNS_6OptionE.omp_outlined.2, ptr nonnull %7, ptr nonnull %11, ptr nonnull %8, ptr nonnull %0)
  call void @llvm.lifetime.end.p0(i64 4, ptr nonnull %11) #6
  call void @llvm.lifetime.end.p0(i64 4, ptr nonnull %10) #6
  call void @llvm.lifetime.end.p0(i64 8, ptr nonnull %9) #6
  call void @llvm.lifetime.end.p0(i64 8, ptr nonnull %8) #6
  br label %74

54:                                               ; preds = %29
  call void @llvm.lifetime.start.p0(i64 8, ptr nonnull %12) #6
  %55 = load ptr, ptr %1, align 8, !tbaa !16
  store ptr %55, ptr %12, align 8, !tbaa !40
  call void @llvm.lifetime.start.p0(i64 4, ptr nonnull %13) #6
  %56 = load ptr, ptr %34, align 8, !tbaa !16
  %57 = load float, ptr %56, align 4, !tbaa !44
  store float %57, ptr %13, align 4, !tbaa !44
  call void @llvm.lifetime.start.p0(i64 4, ptr nonnull %14) #6
  call void @llvm.lifetime.start.p0(i64 4, ptr nonnull %15) #6
  store i32 0, ptr %15, align 4, !tbaa !21
  %58 = sdiv i32 %30, 8
  store i32 %58, ptr %14, align 4, !tbaa !21
  %59 = getelementptr inbounds nuw i8, ptr %2, i64 4
  %60 = load i32, ptr %59, align 4, !tbaa !42
  tail call void @__kmpc_push_num_threads(ptr nonnull @2, i32 %18, i32 %60)
  call void (ptr, i32, ptr, ...) @__kmpc_fork_call(ptr nonnull @2, i32 4, ptr nonnull @_ZNK4ncnn13PReLU_x86_avx15forward_inplaceERNS_3MatERKNS_6OptionE.omp_outlined.3, ptr nonnull %14, ptr nonnull %15, ptr nonnull %12, ptr nonnull %13)
  %61 = load i32, ptr %14, align 4, !tbaa !21
  %62 = shl nsw i32 %61, 3
  %63 = load i32, ptr %15, align 4, !tbaa !21
  %64 = add nsw i32 %63, %62
  store i32 %64, ptr %15, align 4, !tbaa !21
  %65 = load i32, ptr %7, align 4, !tbaa !21
  %66 = sub nsw i32 %65, %64
  %67 = sdiv i32 %66, 4
  store i32 %67, ptr %14, align 4, !tbaa !21
  %68 = load i32, ptr %59, align 4, !tbaa !42
  call void @__kmpc_push_num_threads(ptr nonnull @2, i32 %18, i32 %68)
  call void (ptr, i32, ptr, ...) @__kmpc_fork_call(ptr nonnull @2, i32 4, ptr nonnull @_ZNK4ncnn13PReLU_x86_avx15forward_inplaceERNS_3MatERKNS_6OptionE.omp_outlined.4, ptr nonnull %14, ptr nonnull %15, ptr nonnull %12, ptr nonnull %13)
  %69 = load i32, ptr %14, align 4, !tbaa !21
  %70 = shl nsw i32 %69, 2
  %71 = load i32, ptr %15, align 4, !tbaa !21
  %72 = add nsw i32 %71, %70
  store i32 %72, ptr %15, align 4, !tbaa !21
  %73 = load i32, ptr %59, align 4, !tbaa !42
  call void @__kmpc_push_num_threads(ptr nonnull @2, i32 %18, i32 %73)
  call void (ptr, i32, ptr, ...) @__kmpc_fork_call(ptr nonnull @2, i32 4, ptr nonnull @_ZNK4ncnn13PReLU_x86_avx15forward_inplaceERNS_3MatERKNS_6OptionE.omp_outlined.5, ptr nonnull %7, ptr nonnull %15, ptr nonnull %12, ptr nonnull %13)
  call void @llvm.lifetime.end.p0(i64 4, ptr nonnull %15) #6
  call void @llvm.lifetime.end.p0(i64 4, ptr nonnull %14) #6
  call void @llvm.lifetime.end.p0(i64 4, ptr nonnull %13) #6
  call void @llvm.lifetime.end.p0(i64 8, ptr nonnull %12) #6
  br label %74

74:                                               ; preds = %54, %35
  call void @llvm.lifetime.end.p0(i64 4, ptr nonnull %7) #6
  br label %84

75:                                               ; preds = %3
  call void @llvm.lifetime.start.p0(i64 4, ptr nonnull %16) #6
  %76 = mul nsw i32 %28, %22
  store i32 %76, ptr %16, align 4, !tbaa !21
  %77 = getelementptr inbounds nuw i8, ptr %2, i64 4
  %78 = load i32, ptr %77, align 4, !tbaa !42
  tail call void @__kmpc_push_num_threads(ptr nonnull @2, i32 %18, i32 %78)
  call void (ptr, i32, ptr, ...) @__kmpc_fork_call(ptr nonnull @2, i32 5, ptr nonnull @_ZNK4ncnn13PReLU_x86_avx15forward_inplaceERNS_3MatERKNS_6OptionE.omp_outlined.6, ptr nonnull %4, ptr nonnull %1, ptr nonnull %0, ptr nonnull %6, ptr nonnull %16)
  call void @llvm.lifetime.end.p0(i64 4, ptr nonnull %16) #6
  br label %84

79:                                               ; preds = %3
  call void @llvm.lifetime.start.p0(i64 4, ptr nonnull %17) #6
  %80 = mul nsw i32 %24, %22
  %81 = mul nsw i32 %80, %28
  store i32 %81, ptr %17, align 4, !tbaa !21
  %82 = getelementptr inbounds nuw i8, ptr %2, i64 4
  %83 = load i32, ptr %82, align 4, !tbaa !42
  tail call void @__kmpc_push_num_threads(ptr nonnull @2, i32 %18, i32 %83)
  call void (ptr, i32, ptr, ...) @__kmpc_fork_call(ptr nonnull @2, i32 5, ptr nonnull @_ZNK4ncnn13PReLU_x86_avx15forward_inplaceERNS_3MatERKNS_6OptionE.omp_outlined.7, ptr nonnull %5, ptr nonnull %1, ptr nonnull %0, ptr nonnull %6, ptr nonnull %17)
  call void @llvm.lifetime.end.p0(i64 4, ptr nonnull %17) #6
  br label %84

84:                                               ; preds = %75, %74, %3, %79
  call void @llvm.lifetime.end.p0(i64 4, ptr nonnull %6) #6
  call void @llvm.lifetime.end.p0(i64 4, ptr nonnull %5) #6
  call void @llvm.lifetime.end.p0(i64 4, ptr nonnull %4) #6
  ret i32 0
}